target datalayout = "e-m:e-p270:32:32-p271:32:32-p272:64:64-i64:64-i128:128-f80:128-n8:16:32:64-S128"
target triple = "x86_64-pc-linux-gnu"

%struct.ltlNode_t = type { i32, ptr, ptr, ptr, ptr }

@.str.5 = private unnamed_addr constant [3 x i8] c"& \00", align 1
@.str.6 = private unnamed_addr constant [3 x i8] c"+ \00", align 1
@.str.7 = private unnamed_addr constant [3 x i8] c"~ \00", align 1
@.str.8 = private unnamed_addr constant [3 x i8] c"G \00", align 1
@.str.9 = private unnamed_addr constant [3 x i8] c"F \00", align 1
@.str.10 = private unnamed_addr constant [3 x i8] c"X \00", align 1
@.str.11 = private unnamed_addr constant [3 x i8] c"U \00", align 1
@.str.12 = private unnamed_addr constant [4 x i8] c"%s \00", align 1
@.str.13 = private unnamed_addr constant [44 x i8] c"\0AUnsupported token type: Exiting execution\0A\00", align 1

; Function Attrs: nounwind uwtable
define void @traverseAbstractSyntaxTree(ptr noundef %0) #0 {
  %2 = alloca ptr, align 8
  store ptr %0, ptr %2, align 8, !tbaa !7
  %3 = load ptr, ptr %2, align 8, !tbaa !7
  %4 = getelementptr inbounds nuw %struct.ltlNode_t, ptr %3, i32 0, i32 0
  %5 = load i32, ptr %4, align 8, !tbaa !10
  switch i32 %5, label %55 [
    i32 0, label %6
    i32 1, label %14
    i32 2, label %22
    i32 4, label %27
    i32 5, label %32
    i32 6, label %37
    i32 7, label %42
    i32 8, label %50
  ]

6:                                                ; preds = %1
  %7 = call i32 (ptr, ...) @printf(ptr noundef @.str.5)
  %8 = load ptr, ptr %2, align 8, !tbaa !7
  %9 = getelementptr inbounds nuw %struct.ltlNode_t, ptr %8, i32 0, i32 3
  %10 = load ptr, ptr %9, align 8, !tbaa !16
  call void @traverseAbstractSyntaxTree(ptr noundef %10)
  %11 = load ptr, ptr %2, align 8, !tbaa !7
  %12 = getelementptr inbounds nuw %struct.ltlNode_t, ptr %11, i32 0, i32 4
  %13 = load ptr, ptr %12, align 8, !tbaa !17
  call void @traverseAbstractSyntaxTree(ptr noundef %13)
  br label %57

14:                                               ; preds = %1
  %15 = call i32 (ptr, ...) @printf(ptr noundef @.str.6)
  %16 = load ptr, ptr %2, align 8, !tbaa !7
  %17 = getelementptr inbounds nuw %struct.ltlNode_t, ptr %16, i32 0, i32 3
  %18 = load ptr, ptr %17, align 8, !tbaa !16
  call void @traverseAbstractSyntaxTree(ptr noundef %18)
  %19 = load ptr, ptr %2, align 8, !tbaa !7
  %20 = getelementptr inbounds nuw %struct.ltlNode_t, ptr %19, i32 0, i32 4
  %21 = load ptr, ptr %20, align 8, !tbaa !17
  call void @traverseAbstractSyntaxTree(ptr noundef %21)
  br label %57

22:                                               ; preds = %1
  %23 = call i32 (ptr, ...) @printf(ptr noundef @.str.7)
  %24 = load ptr, ptr %2, align 8, !tbaa !7
  %25 = getelementptr inbounds nuw %struct.ltlNode_t, ptr %24, i32 0, i32 3
  %26 = load ptr, ptr %25, align 8, !tbaa !16
  call void @traverseAbstractSyntaxTree(ptr noundef %26)
  br label %57

27:                                               ; preds = %1
  %28 = call i32 (ptr, ...) @printf(ptr noundef @.str.8)
  %29 = load ptr, ptr %2, align 8, !tbaa !7
  %30 = getelementptr inbounds nuw %struct.ltlNode_t, ptr %29, i32 0, i32 3
  %31 = load ptr, ptr %30, align 8, !tbaa !16
  call void @traverseAbstractSyntaxTree(ptr noundef %31)
  br label %57

32:                                               ; preds = %1
  %33 = call i32 (ptr, ...) @printf(ptr noundef @.str.9)
  %34 = load ptr, ptr %2, align 8, !tbaa !7
  %35 = getelementptr inbounds nuw %struct.ltlNode_t, ptr %34, i32 0, i32 3
  %36 = load ptr, ptr %35, align 8, !tbaa !16
  call void @traverseAbstractSyntaxTree(ptr noundef %36)
  br label %57

37:                                               ; preds = %1
  %38 = call i32 (ptr, ...) @printf(ptr noundef @.str.10)
  %39 = load ptr, ptr %2, align 8, !tbaa !7
  %40 = getelementptr inbounds nuw %struct.ltlNode_t, ptr %39, i32 0, i32 3
  %41 = load ptr, ptr %40, align 8, !tbaa !16
  call void @traverseAbstractSyntaxTree(ptr noundef %41)
  br label %57

42:                                               ; preds = %1
  %43 = call i32 (ptr, ...) @printf(ptr noundef @.str.11)
  %44 = load ptr, ptr %2, align 8, !tbaa !7
  %45 = getelementptr inbounds nuw %struct.ltlNode_t, ptr %44, i32 0, i32 3
  %46 = load ptr, ptr %45, align 8, !tbaa !16
  call void @traverseAbstractSyntaxTree(ptr noundef %46)
  %47 = load ptr, ptr %2, align 8, !tbaa !7
  %48 = getelementptr inbounds nuw %struct.ltlNode_t, ptr %47, i32 0, i32 4
  %49 = load ptr, ptr %48, align 8, !tbaa !17
  call void @traverseAbstractSyntaxTree(ptr noundef %49)
  br label %57

50:                                               ; preds = %1
  %51 = load ptr, ptr %2, align 8, !tbaa !7
  %52 = getelementptr inbounds nuw %struct.ltlNode_t, ptr %51, i32 0, i32 1
  %53 = load ptr, ptr %52, align 8, !tbaa !15
  %54 = call i32 (ptr, ...) @printf(ptr noundef @.str.12, ptr noundef %53)
  br label %57

55:                                               ; preds = %1
  %56 = call i32 (ptr, ...) @printf(ptr noundef @.str.13)
  call void @exit(i32 noundef 0) #12
  unreachable

57:                                               ; preds = %50, %42, %37, %32, %27, %22, %14, %6
  ret void
}