; Function Attrs: nofree nounwind uwtable
define void @traverseAbstractSyntaxTree(ptr noundef readonly captures(none) %0) local_unnamed_addr #5 {
  br label %tailrecurse

tailrecurse:                                      ; preds = %tailrecurse.backedge, %1
  %.tr = phi ptr [ %0, %1 ], [ %.tr.be, %tailrecurse.backedge ]
  %2 = load i32, ptr %.tr, align 8, !tbaa !3
  switch i32 %2, label %28 [
    i32 0, label %3
    i32 1, label %8
    i32 2, label %12
    i32 4, label %14
    i32 5, label %16
    i32 6, label %18
    i32 7, label %20
    i32 8, label %24
  ]

3:                                                ; preds = %tailrecurse
  %4 = tail call i32 (ptr, ...) @printf(ptr noundef nonnull dereferenceable(1) @.str.5)
  %5 = getelementptr inbounds nuw i8, ptr %.tr, i64 24
  %6 = load ptr, ptr %5, align 8, !tbaa !46
  tail call void @traverseAbstractSyntaxTree(ptr noundef %6)
  br label %tailrecurse.backedge

tailrecurse.backedge:                             ; preds = %3, %8, %12, %14, %16, %18, %20
  %.sink = phi i64 [ 32, %3 ], [ 32, %8 ], [ 24, %12 ], [ 24, %14 ], [ 24, %16 ], [ 24, %18 ], [ 32, %20 ]
  %7 = getelementptr inbounds nuw i8, ptr %.tr, i64 %.sink
  %.tr.be = load ptr, ptr %7, align 8, !tbaa !50
  br label %tailrecurse

8:                                                ; preds = %tailrecurse
  %9 = tail call i32 (ptr, ...) @printf(ptr noundef nonnull dereferenceable(1) @.str.6)
  %10 = getelementptr inbounds nuw i8, ptr %.tr, i64 24
  %11 = load ptr, ptr %10, align 8, !tbaa !46
  tail call void @traverseAbstractSyntaxTree(ptr noundef %11)
  br label %tailrecurse.backedge

12:                                               ; preds = %tailrecurse
  %13 = tail call i32 (ptr, ...) @printf(ptr noundef nonnull dereferenceable(1) @.str.7)
  br label %tailrecurse.backedge

14:                                               ; preds = %tailrecurse
  %15 = tail call i32 (ptr, ...) @printf(ptr noundef nonnull dereferenceable(1) @.str.8)
  br label %tailrecurse.backedge

16:                                               ; preds = %tailrecurse
  %17 = tail call i32 (ptr, ...) @printf(ptr noundef nonnull dereferenceable(1) @.str.9)
  br label %tailrecurse.backedge

18:                                               ; preds = %tailrecurse
  %19 = tail call i32 (ptr, ...) @printf(ptr noundef nonnull dereferenceable(1) @.str.10)
  br label %tailrecurse.backedge

20:                                               ; preds = %tailrecurse
  %21 = tail call i32 (ptr, ...) @printf(ptr noundef nonnull dereferenceable(1) @.str.11)
  %22 = getelementptr inbounds nuw i8, ptr %.tr, i64 24
  %23 = load ptr, ptr %22, align 8, !tbaa !46
  tail call void @traverseAbstractSyntaxTree(ptr noundef %23)
  br label %tailrecurse.backedge

24:                                               ; preds = %tailrecurse
  %25 = getelementptr inbounds nuw i8, ptr %.tr, i64 8
  %26 = load ptr, ptr %25, align 8, !tbaa !47
  %27 = tail call i32 (ptr, ...) @printf(ptr noundef nonnull dereferenceable(1) @.str.12, ptr noundef %26)
  ret void

28:                                               ; preds = %tailrecurse
  %puts = tail call i32 @puts(ptr nonnull dereferenceable(1) @str.1)
  tail call void @exit(i32 noundef 0) #26
  unreachable
}